
rop3-7f3312fe43c46d26:     file format elf32-i386


Disassembly of section .init:

08048318 <_init>:
 8048318:	53                   	push   ebx
 8048319:	83 ec 08             	sub    esp,0x8
 804831c:	e8 00 00 00 00       	call   8048321 <_init+0x9>
 8048321:	5b                   	pop    ebx
 8048322:	81 c3 d3 1c 00 00    	add    ebx,0x1cd3
 8048328:	8b 83 fc ff ff ff    	mov    eax,DWORD PTR [ebx-0x4]
 804832e:	85 c0                	test   eax,eax
 8048330:	74 05                	je     8048337 <_init+0x1f>
 8048332:	e8 49 00 00 00       	call   8048380 <__gmon_start__@plt>
 8048337:	e8 14 01 00 00       	call   8048450 <frame_dummy>
 804833c:	e8 3f 02 00 00       	call   8048580 <__do_global_ctors_aux>
 8048341:	83 c4 08             	add    esp,0x8
 8048344:	5b                   	pop    ebx
 8048345:	c3                   	ret    

Disassembly of section .plt:

08048350 <read@plt-0x10>:
 8048350:	ff 35 f8 9f 04 08    	push   DWORD PTR ds:0x8049ff8
 8048356:	ff 25 fc 9f 04 08    	jmp    DWORD PTR ds:0x8049ffc
 804835c:	00 00                	add    BYTE PTR [eax],al
	...

08048360 <read@plt>:
 8048360:	ff 25 00 a0 04 08    	jmp    DWORD PTR ds:0x804a000
 8048366:	68 00 00 00 00       	push   0x0
 804836b:	e9 e0 ff ff ff       	jmp    8048350 <_init+0x38>

08048370 <getegid@plt>:
 8048370:	ff 25 04 a0 04 08    	jmp    DWORD PTR ds:0x804a004
 8048376:	68 08 00 00 00       	push   0x8
 804837b:	e9 d0 ff ff ff       	jmp    8048350 <_init+0x38>

08048380 <__gmon_start__@plt>:
 8048380:	ff 25 08 a0 04 08    	jmp    DWORD PTR ds:0x804a008
 8048386:	68 10 00 00 00       	push   0x10
 804838b:	e9 c0 ff ff ff       	jmp    8048350 <_init+0x38>

08048390 <__libc_start_main@plt>:
 8048390:	ff 25 0c a0 04 08    	jmp    DWORD PTR ds:0x804a00c
 8048396:	68 18 00 00 00       	push   0x18
 804839b:	e9 b0 ff ff ff       	jmp    8048350 <_init+0x38>

080483a0 <write@plt>:
 80483a0:	ff 25 10 a0 04 08    	jmp    DWORD PTR ds:0x804a010
 80483a6:	68 20 00 00 00       	push   0x20
 80483ab:	e9 a0 ff ff ff       	jmp    8048350 <_init+0x38>

080483b0 <setresgid@plt>:
 80483b0:	ff 25 14 a0 04 08    	jmp    DWORD PTR ds:0x804a014
 80483b6:	68 28 00 00 00       	push   0x28
 80483bb:	e9 90 ff ff ff       	jmp    8048350 <_init+0x38>

Disassembly of section .text:

080483c0 <_start>:
 80483c0:	31 ed                	xor    ebp,ebp
 80483c2:	5e                   	pop    esi
 80483c3:	89 e1                	mov    ecx,esp
 80483c5:	83 e4 f0             	and    esp,0xfffffff0
 80483c8:	50                   	push   eax
 80483c9:	54                   	push   esp
 80483ca:	52                   	push   edx
 80483cb:	68 70 85 04 08       	push   0x8048570
 80483d0:	68 00 85 04 08       	push   0x8048500
 80483d5:	51                   	push   ecx
 80483d6:	56                   	push   esi
 80483d7:	68 c6 84 04 08       	push   0x80484c6
 80483dc:	e8 af ff ff ff       	call   8048390 <__libc_start_main@plt>
 80483e1:	f4                   	hlt    
 80483e2:	90                   	nop
 80483e3:	90                   	nop
 80483e4:	90                   	nop
 80483e5:	90                   	nop
 80483e6:	90                   	nop
 80483e7:	90                   	nop
 80483e8:	90                   	nop
 80483e9:	90                   	nop
 80483ea:	90                   	nop
 80483eb:	90                   	nop
 80483ec:	90                   	nop
 80483ed:	90                   	nop
 80483ee:	90                   	nop
 80483ef:	90                   	nop

080483f0 <__do_global_dtors_aux>:
 80483f0:	55                   	push   ebp
 80483f1:	89 e5                	mov    ebp,esp
 80483f3:	53                   	push   ebx
 80483f4:	83 ec 04             	sub    esp,0x4
 80483f7:	80 3d 20 a0 04 08 00 	cmp    BYTE PTR ds:0x804a020,0x0
 80483fe:	75 3f                	jne    804843f <__do_global_dtors_aux+0x4f>
 8048400:	a1 24 a0 04 08       	mov    eax,ds:0x804a024
 8048405:	bb 20 9f 04 08       	mov    ebx,0x8049f20
 804840a:	81 eb 1c 9f 04 08    	sub    ebx,0x8049f1c
 8048410:	c1 fb 02             	sar    ebx,0x2
 8048413:	83 eb 01             	sub    ebx,0x1
 8048416:	39 d8                	cmp    eax,ebx
 8048418:	73 1e                	jae    8048438 <__do_global_dtors_aux+0x48>
 804841a:	8d b6 00 00 00 00    	lea    esi,[esi+0x0]
 8048420:	83 c0 01             	add    eax,0x1
 8048423:	a3 24 a0 04 08       	mov    ds:0x804a024,eax
 8048428:	ff 14 85 1c 9f 04 08 	call   DWORD PTR [eax*4+0x8049f1c]
 804842f:	a1 24 a0 04 08       	mov    eax,ds:0x804a024
 8048434:	39 d8                	cmp    eax,ebx
 8048436:	72 e8                	jb     8048420 <__do_global_dtors_aux+0x30>
 8048438:	c6 05 20 a0 04 08 01 	mov    BYTE PTR ds:0x804a020,0x1
 804843f:	83 c4 04             	add    esp,0x4
 8048442:	5b                   	pop    ebx
 8048443:	5d                   	pop    ebp
 8048444:	c3                   	ret    
 8048445:	8d 74 26 00          	lea    esi,[esi+eiz*1+0x0]
 8048449:	8d bc 27 00 00 00 00 	lea    edi,[edi+eiz*1+0x0]

08048450 <frame_dummy>:
 8048450:	55                   	push   ebp
 8048451:	89 e5                	mov    ebp,esp
 8048453:	83 ec 18             	sub    esp,0x18
 8048456:	a1 24 9f 04 08       	mov    eax,ds:0x8049f24
 804845b:	85 c0                	test   eax,eax
 804845d:	74 12                	je     8048471 <frame_dummy+0x21>
 804845f:	b8 00 00 00 00       	mov    eax,0x0
 8048464:	85 c0                	test   eax,eax
 8048466:	74 09                	je     8048471 <frame_dummy+0x21>
 8048468:	c7 04 24 24 9f 04 08 	mov    DWORD PTR [esp],0x8049f24
 804846f:	ff d0                	call   eax
 8048471:	c9                   	leave  
 8048472:	c3                   	ret    
 8048473:	90                   	nop

08048474 <vulnerable_function>:
 8048474:	55                   	push   ebp
 8048475:	89 e5                	mov    ebp,esp
 8048477:	81 ec 98 00 00 00    	sub    esp,0x98
 804847d:	c7 44 24 08 00 01 00 	mov    DWORD PTR [esp+0x8],0x100
 8048484:	00 
 8048485:	8d 85 78 ff ff ff    	lea    eax,[ebp-0x88]
 804848b:	89 44 24 04          	mov    DWORD PTR [esp+0x4],eax
 804848f:	c7 04 24 00 00 00 00 	mov    DWORD PTR [esp],0x0
 8048496:	e8 c5 fe ff ff       	call   8048360 <read@plt>
 804849b:	c9                   	leave  
 804849c:	c3                   	ret    

0804849d <be_nice_to_people>:
 804849d:	55                   	push   ebp
 804849e:	89 e5                	mov    ebp,esp
 80484a0:	83 ec 28             	sub    esp,0x28
 80484a3:	e8 c8 fe ff ff       	call   8048370 <getegid@plt>
 80484a8:	89 45 f4             	mov    DWORD PTR [ebp-0xc],eax
 80484ab:	8b 45 f4             	mov    eax,DWORD PTR [ebp-0xc]
 80484ae:	89 44 24 08          	mov    DWORD PTR [esp+0x8],eax
 80484b2:	8b 45 f4             	mov    eax,DWORD PTR [ebp-0xc]
 80484b5:	89 44 24 04          	mov    DWORD PTR [esp+0x4],eax
 80484b9:	8b 45 f4             	mov    eax,DWORD PTR [ebp-0xc]
 80484bc:	89 04 24             	mov    DWORD PTR [esp],eax
 80484bf:	e8 ec fe ff ff       	call   80483b0 <setresgid@plt>
 80484c4:	c9                   	leave  
 80484c5:	c3                   	ret    

080484c6 <main>:
 80484c6:	55                   	push   ebp
 80484c7:	89 e5                	mov    ebp,esp
 80484c9:	83 e4 f0             	and    esp,0xfffffff0
 80484cc:	83 ec 10             	sub    esp,0x10
 80484cf:	e8 c9 ff ff ff       	call   804849d <be_nice_to_people>
 80484d4:	e8 9b ff ff ff       	call   8048474 <vulnerable_function>
 80484d9:	c7 44 24 08 0d 00 00 	mov    DWORD PTR [esp+0x8],0xd
 80484e0:	00 
 80484e1:	c7 44 24 04 d0 85 04 	mov    DWORD PTR [esp+0x4],0x80485d0
 80484e8:	08 
 80484e9:	c7 04 24 01 00 00 00 	mov    DWORD PTR [esp],0x1
 80484f0:	e8 ab fe ff ff       	call   80483a0 <write@plt>
 80484f5:	c9                   	leave  
 80484f6:	c3                   	ret    
 80484f7:	90                   	nop
 80484f8:	90                   	nop
 80484f9:	90                   	nop
 80484fa:	90                   	nop
 80484fb:	90                   	nop
 80484fc:	90                   	nop
 80484fd:	90                   	nop
 80484fe:	90                   	nop
 80484ff:	90                   	nop

08048500 <__libc_csu_init>:
 8048500:	55                   	push   ebp
 8048501:	57                   	push   edi
 8048502:	56                   	push   esi
 8048503:	53                   	push   ebx
 8048504:	e8 69 00 00 00       	call   8048572 <__i686.get_pc_thunk.bx>
 8048509:	81 c3 eb 1a 00 00    	add    ebx,0x1aeb
 804850f:	83 ec 1c             	sub    esp,0x1c
 8048512:	8b 6c 24 30          	mov    ebp,DWORD PTR [esp+0x30]
 8048516:	8d bb 20 ff ff ff    	lea    edi,[ebx-0xe0]
 804851c:	e8 f7 fd ff ff       	call   8048318 <_init>
 8048521:	8d 83 20 ff ff ff    	lea    eax,[ebx-0xe0]
 8048527:	29 c7                	sub    edi,eax
 8048529:	c1 ff 02             	sar    edi,0x2
 804852c:	85 ff                	test   edi,edi
 804852e:	74 29                	je     8048559 <__libc_csu_init+0x59>
 8048530:	31 f6                	xor    esi,esi
 8048532:	8d b6 00 00 00 00    	lea    esi,[esi+0x0]
 8048538:	8b 44 24 38          	mov    eax,DWORD PTR [esp+0x38]
 804853c:	89 2c 24             	mov    DWORD PTR [esp],ebp
 804853f:	89 44 24 08          	mov    DWORD PTR [esp+0x8],eax
 8048543:	8b 44 24 34          	mov    eax,DWORD PTR [esp+0x34]
 8048547:	89 44 24 04          	mov    DWORD PTR [esp+0x4],eax
 804854b:	ff 94 b3 20 ff ff ff 	call   DWORD PTR [ebx+esi*4-0xe0]
 8048552:	83 c6 01             	add    esi,0x1
 8048555:	39 fe                	cmp    esi,edi
 8048557:	75 df                	jne    8048538 <__libc_csu_init+0x38>
 8048559:	83 c4 1c             	add    esp,0x1c
 804855c:	5b                   	pop    ebx
 804855d:	5e                   	pop    esi
 804855e:	5f                   	pop    edi
 804855f:	5d                   	pop    ebp
 8048560:	c3                   	ret    
 8048561:	eb 0d                	jmp    8048570 <__libc_csu_fini>
 8048563:	90                   	nop
 8048564:	90                   	nop
 8048565:	90                   	nop
 8048566:	90                   	nop
 8048567:	90                   	nop
 8048568:	90                   	nop
 8048569:	90                   	nop
 804856a:	90                   	nop
 804856b:	90                   	nop
 804856c:	90                   	nop
 804856d:	90                   	nop
 804856e:	90                   	nop
 804856f:	90                   	nop

08048570 <__libc_csu_fini>:
 8048570:	f3 c3                	repz ret 

08048572 <__i686.get_pc_thunk.bx>:
 8048572:	8b 1c 24             	mov    ebx,DWORD PTR [esp]
 8048575:	c3                   	ret    
 8048576:	90                   	nop
 8048577:	90                   	nop
 8048578:	90                   	nop
 8048579:	90                   	nop
 804857a:	90                   	nop
 804857b:	90                   	nop
 804857c:	90                   	nop
 804857d:	90                   	nop
 804857e:	90                   	nop
 804857f:	90                   	nop

08048580 <__do_global_ctors_aux>:
 8048580:	55                   	push   ebp
 8048581:	89 e5                	mov    ebp,esp
 8048583:	53                   	push   ebx
 8048584:	83 ec 04             	sub    esp,0x4
 8048587:	a1 14 9f 04 08       	mov    eax,ds:0x8049f14
 804858c:	83 f8 ff             	cmp    eax,0xffffffff
 804858f:	74 13                	je     80485a4 <__do_global_ctors_aux+0x24>
 8048591:	bb 14 9f 04 08       	mov    ebx,0x8049f14
 8048596:	66 90                	xchg   ax,ax
 8048598:	83 eb 04             	sub    ebx,0x4
 804859b:	ff d0                	call   eax
 804859d:	8b 03                	mov    eax,DWORD PTR [ebx]
 804859f:	83 f8 ff             	cmp    eax,0xffffffff
 80485a2:	75 f4                	jne    8048598 <__do_global_ctors_aux+0x18>
 80485a4:	83 c4 04             	add    esp,0x4
 80485a7:	5b                   	pop    ebx
 80485a8:	5d                   	pop    ebp
 80485a9:	c3                   	ret    
 80485aa:	90                   	nop
 80485ab:	90                   	nop

Disassembly of section .fini:

080485ac <_fini>:
 80485ac:	53                   	push   ebx
 80485ad:	83 ec 08             	sub    esp,0x8
 80485b0:	e8 00 00 00 00       	call   80485b5 <_fini+0x9>
 80485b5:	5b                   	pop    ebx
 80485b6:	81 c3 3f 1a 00 00    	add    ebx,0x1a3f
 80485bc:	e8 2f fe ff ff       	call   80483f0 <__do_global_dtors_aux>
 80485c1:	83 c4 08             	add    esp,0x8
 80485c4:	5b                   	pop    ebx
 80485c5:	c3                   	ret    
